; Function Attrs: mustprogress nofree nounwind willreturn memory(readwrite, inaccessiblemem: write) uwtable
define internal noundef i32 @fn(double noundef %0, ptr noundef readonly captures(none) %1, ptr noundef readonly captures(none) %2, ptr noundef readonly captures(none) %3) #5 {
  %5 = load double, ptr %3, align 8, !tbaa !12
  %6 = getelementptr inbounds nuw i8, ptr %3, i64 16
  %7 = load double, ptr %6, align 8, !tbaa !12
  %8 = load ptr, ptr %1, align 8, !tbaa !18
  %9 = getelementptr inbounds nuw i8, ptr %8, i64 16
  %10 = load ptr, ptr %9, align 8, !tbaa !21
  %11 = load double, ptr %10, align 8, !tbaa !12
  %12 = getelementptr inbounds nuw i8, ptr %10, i64 8
  %13 = load double, ptr %12, align 8, !tbaa !12
  %14 = tail call double @llvm.fmuladd.f64(double %11, double %11, double -1.000000e+00)
  %15 = tail call double @cos(double noundef %0) #9, !tbaa !26
  %16 = fmul double %15, 5.000000e-01
  %17 = fsub double %14, %16
  %18 = fmul double %11, 2.000000e+00
  %19 = fdiv double %17, %18
  %20 = tail call double @llvm.fmuladd.f64(double %13, double %13, double -2.000000e+00)
  %21 = getelementptr i8, ptr %3, i64 8
  %.val = load double, ptr %21, align 8, !tbaa !12
  %22 = fmul double %0, %.val
  %23 = tail call double @cos(double noundef %22) #9, !tbaa !26
  %24 = fsub double %20, %23
  %25 = fmul double %13, 2.000000e+00
  %26 = fdiv double %24, %25
  %27 = fmul double %7, %26
  %28 = tail call double @llvm.fmuladd.f64(double %5, double %19, double %27)
  %29 = tail call double @sin(double noundef %0) #9, !tbaa !26
  %30 = fmul double %29, 5.000000e-01
  %31 = fdiv double %30, %18
  %32 = fsub double %28, %31
  %33 = load ptr, ptr %2, align 8, !tbaa !18
  %34 = getelementptr inbounds nuw i8, ptr %33, i64 16
  %35 = load ptr, ptr %34, align 8, !tbaa !21
  store double %32, ptr %35, align 8, !tbaa !12
  %.val32 = load double, ptr %21, align 8, !tbaa !12
  %36 = fmul double %0, %.val32
  %37 = tail call double @sin(double noundef %36) #9, !tbaa !26
  %38 = tail call double @cos(double noundef %36) #9, !tbaa !26
  %39 = fadd double %38, 2.000000e+00
  %40 = fcmp ugt double %39, 0.000000e+00
  br i1 %40, label %41, label %vtrue.exit

41:                                               ; preds = %4
  %42 = tail call double @cos(double noundef %36) #9, !tbaa !26
  %43 = fadd double %42, 2.000000e+00
  %44 = tail call double @sqrt(double noundef %43) #9, !tbaa !26
  %45 = fmul double %44, 2.000000e+00
  br label %vtrue.exit

vtrue.exit:                                       ; preds = %4, %41
  %46 = phi double [ %45, %41 ], [ 0.000000e+00, %4 ]
  %47 = fneg double %.val32
  %48 = fmul double %37, %47
  %49 = fneg double %26
  %50 = tail call double @llvm.fmuladd.f64(double %7, double %19, double %49)
  %51 = fdiv double %48, %46
  %52 = fadd double %50, %51
  %53 = getelementptr inbounds nuw i8, ptr %35, i64 8
  store double %52, ptr %53, align 8, !tbaa !12
  ret i32 0
}